target datalayout = "e-m:e-p270:32:32-p271:32:32-p272:64:64-i64:64-i128:128-f80:128-n8:16:32:64-S128"
target triple = "x86_64-pc-linux-gnu"

%struct.Node = type { i32 }
%union.ListCell = type { ptr }
%struct.JsonReturning = type { i32, ptr, i32, i32 }
%struct.JsonSerializeExpr = type { i32, ptr, ptr, i32 }

@.str.41 = private unnamed_addr constant [13 x i8] c"parse_expr.c\00", align 1
@.str.159 = private unnamed_addr constant [45 x i8] c"cannot use type %s in RETURNING clause of %s\00", align 1
@.str.163 = private unnamed_addr constant [17 x i8] c"JSON_SERIALIZE()\00", align 1
@.str.164 = private unnamed_addr constant [38 x i8] c"Try returning a string type or bytea.\00", align 1
@__func__.transformJsonSerializeExpr = private unnamed_addr constant [27 x i8] c"transformJsonSerializeExpr\00", align 1

; Function Attrs: inlinehint nounwind uwtable
define internal ptr @newNode(i64 noundef %0, i32 noundef %1) #4 {
  %3 = alloca i64, align 8
  %4 = alloca i32, align 4
  %5 = alloca ptr, align 8
  store i64 %0, ptr %3, align 8
  store i32 %1, ptr %4, align 4
  call void @llvm.lifetime.start.p0(i64 8, ptr %5) #8
  %6 = load i64, ptr %3, align 8
  %7 = call ptr @palloc0(i64 noundef %6)
  store ptr %7, ptr %5, align 8
  %8 = load i32, ptr %4, align 4
  %9 = load ptr, ptr %5, align 8
  %10 = getelementptr inbounds nuw %struct.Node, ptr %9, i32 0, i32 0
  store i32 %8, ptr %10, align 4
  %11 = load ptr, ptr %5, align 8
  call void @llvm.lifetime.end.p0(i64 8, ptr %5) #8
  ret ptr %11
}

; Function Attrs: nounwind uwtable
define internal ptr @transformJsonSerializeExpr(ptr noundef %0, ptr noundef %1) #0 {
  %3 = alloca ptr, align 8
  %4 = alloca ptr, align 8
  %5 = alloca ptr, align 8
  %6 = alloca ptr, align 8
  %7 = alloca i8, align 1
  %8 = alloca i8, align 1
  %9 = alloca %union.ListCell, align 8
  store ptr %0, ptr %3, align 8
  store ptr %1, ptr %4, align 8
  call void @llvm.lifetime.start.p0(i64 8, ptr %5) #8
  call void @llvm.lifetime.start.p0(i64 8, ptr %6) #8
  %10 = load ptr, ptr %3, align 8
  %11 = load ptr, ptr %4, align 8
  %12 = getelementptr inbounds nuw %struct.JsonSerializeExpr, ptr %11, i32 0, i32 1
  %13 = load ptr, ptr %12, align 8
  %14 = call ptr @transformJsonValueExpr(ptr noundef %10, ptr noundef @.str.163, ptr noundef %13, i32 noundef 1, i32 noundef 0, i1 noundef zeroext false)
  store ptr %14, ptr %6, align 8
  %15 = load ptr, ptr %4, align 8
  %16 = getelementptr inbounds nuw %struct.JsonSerializeExpr, ptr %15, i32 0, i32 2
  %17 = load ptr, ptr %16, align 8
  %18 = icmp ne ptr %17, null
  br i1 %18, label %19, label %55

19:                                               ; preds = %2
  %20 = load ptr, ptr %3, align 8
  %21 = load ptr, ptr %4, align 8
  %22 = getelementptr inbounds nuw %struct.JsonSerializeExpr, ptr %21, i32 0, i32 2
  %23 = load ptr, ptr %22, align 8
  %24 = call ptr @transformJsonOutput(ptr noundef %20, ptr noundef %23, i1 noundef zeroext true)
  store ptr %24, ptr %5, align 8
  %25 = load ptr, ptr %5, align 8
  %26 = getelementptr inbounds nuw %struct.JsonReturning, ptr %25, i32 0, i32 2
  %27 = load i32, ptr %26, align 8
  %28 = icmp ne i32 %27, 17
  br i1 %28, label %29, label %54

29:                                               ; preds = %19
  call void @llvm.lifetime.start.p0(i64 1, ptr %7) #8
  call void @llvm.lifetime.start.p0(i64 1, ptr %8) #8
  %30 = load ptr, ptr %5, align 8
  %31 = getelementptr inbounds nuw %struct.JsonReturning, ptr %30, i32 0, i32 2
  %32 = load i32, ptr %31, align 8
  call void @get_type_category_preferred(i32 noundef %32, ptr noundef %7, ptr noundef %8)
  %33 = load i8, ptr %7, align 1
  %34 = sext i8 %33 to i32
  %35 = icmp ne i32 %34, 83
  br i1 %35, label %36, label %53

36:                                               ; preds = %29
  br label %37

37:                                               ; preds = %36
  br i1 true, label %38, label %40

38:                                               ; preds = %37
  %39 = call zeroext i1 @errstart_cold(i32 noundef 21, ptr noundef null) #9
  br i1 %39, label %42, label %50

40:                                               ; preds = %37
  %41 = call zeroext i1 @errstart(i32 noundef 21, ptr noundef null)
  br i1 %41, label %42, label %50

42:                                               ; preds = %40, %38
  %43 = call i32 @errcode(i32 noundef 67141764)
  %44 = load ptr, ptr %5, align 8
  %45 = getelementptr inbounds nuw %struct.JsonReturning, ptr %44, i32 0, i32 2
  %46 = load i32, ptr %45, align 8
  %47 = call ptr @format_type_be(i32 noundef %46)
  %48 = call i32 (ptr, ...) @errmsg(ptr noundef @.str.159, ptr noundef %47, ptr noundef @.str.163)
  %49 = call i32 (ptr, ...) @errhint(ptr noundef @.str.164)
  call void @errfinish(ptr noundef @.str.41, i32 noundef 4250, ptr noundef @__func__.transformJsonSerializeExpr)
  br label %50

50:                                               ; preds = %42, %40, %38
  unreachable

51:                                               ; No predecessors!
  br label %52

52:                                               ; preds = %51
  br label %53

53:                                               ; preds = %52, %29
  call void @llvm.lifetime.end.p0(i64 1, ptr %8) #8
  call void @llvm.lifetime.end.p0(i64 1, ptr %7) #8
  br label %54

54:                                               ; preds = %53, %19
  br label %64

55:                                               ; preds = %2
  %56 = call ptr @newNode(i64 noundef 24, i32 noundef 43)
  store ptr %56, ptr %5, align 8
  %57 = call ptr @makeJsonFormat(i32 noundef 1, i32 noundef 0, i32 noundef -1)
  %58 = load ptr, ptr %5, align 8
  %59 = getelementptr inbounds nuw %struct.JsonReturning, ptr %58, i32 0, i32 1
  store ptr %57, ptr %59, align 8
  %60 = load ptr, ptr %5, align 8
  %61 = getelementptr inbounds nuw %struct.JsonReturning, ptr %60, i32 0, i32 2
  store i32 25, ptr %61, align 8
  %62 = load ptr, ptr %5, align 8
  %63 = getelementptr inbounds nuw %struct.JsonReturning, ptr %62, i32 0, i32 3
  store i32 -1, ptr %63, align 4
  br label %64

64:                                               ; preds = %55, %54
  %65 = load ptr, ptr %3, align 8
  %66 = load ptr, ptr %6, align 8
  store ptr %66, ptr %9, align 8
  %67 = getelementptr inbounds nuw %union.ListCell, ptr %9, i32 0, i32 0
  %68 = load ptr, ptr %67, align 8
  %69 = call ptr @list_make1_impl(i32 noundef 1, ptr %68)
  %70 = load ptr, ptr %5, align 8
  %71 = load ptr, ptr %4, align 8
  %72 = getelementptr inbounds nuw %struct.JsonSerializeExpr, ptr %71, i32 0, i32 3
  %73 = load i32, ptr %72, align 8
  %74 = call ptr @makeJsonConstructorExpr(ptr noundef %65, i32 noundef 7, ptr noundef %69, ptr noundef null, ptr noundef %70, i1 noundef zeroext false, i1 noundef zeroext false, i32 noundef %73)
  call void @llvm.lifetime.end.p0(i64 8, ptr %6) #8
  call void @llvm.lifetime.end.p0(i64 8, ptr %5) #8
  ret ptr %74
}