; Function Attrs: nounwind uwtable
define internal fastcc noundef ptr @transformJsonSerializeExpr(ptr noundef %0, ptr noundef nonnull readonly captures(none) %1) unnamed_addr #0 {
  %3 = alloca i8, align 1
  %4 = alloca i8, align 1
  %5 = getelementptr inbounds nuw i8, ptr %1, i64 8
  %6 = load ptr, ptr %5, align 8
  %7 = tail call fastcc ptr @transformJsonValueExpr(ptr noundef %0, ptr noundef nonnull @.str.163, ptr noundef %6, i32 noundef 1, i32 noundef 0, i1 noundef zeroext false)
  %8 = getelementptr inbounds nuw i8, ptr %1, i64 16
  %9 = load ptr, ptr %8, align 8
  %.not = icmp eq ptr %9, null
  br i1 %.not, label %24, label %10

10:                                               ; preds = %2
  %11 = tail call fastcc ptr @transformJsonOutput(ptr noundef %0, ptr noundef nonnull %9, i1 noundef zeroext true)
  %12 = getelementptr inbounds nuw i8, ptr %11, i64 16
  %13 = load i32, ptr %12, align 8
  %.not16 = icmp eq i32 %13, 17
  br i1 %.not16, label %30, label %14

14:                                               ; preds = %10
  call void @llvm.lifetime.start.p0(i64 1, ptr nonnull %3) #9
  call void @llvm.lifetime.start.p0(i64 1, ptr nonnull %4) #9
  call void @get_type_category_preferred(i32 noundef %13, ptr noundef nonnull %3, ptr noundef nonnull %4) #9
  %15 = load i8, ptr %3, align 1
  %.not17 = icmp eq i8 %15, 83
  br i1 %.not17, label %23, label %16

16:                                               ; preds = %14
  %17 = call zeroext i1 @errstart_cold(i32 noundef 21, ptr noundef null) #10
  call void @llvm.assume(i1 %17)
  %18 = call i32 @errcode(i32 noundef 67141764) #9
  %19 = load i32, ptr %12, align 8
  %20 = call ptr @format_type_be(i32 noundef %19) #9
  %21 = call i32 (ptr, ...) @errmsg(ptr noundef nonnull @.str.159, ptr noundef %20, ptr noundef nonnull @.str.163) #9
  %22 = call i32 (ptr, ...) @errhint(ptr noundef nonnull @.str.164) #9
  call void @errfinish(ptr noundef nonnull @.str.41, i32 noundef 4250, ptr noundef nonnull @__func__.transformJsonSerializeExpr) #9
  unreachable

23:                                               ; preds = %14
  call void @llvm.lifetime.end.p0(i64 1, ptr nonnull %4) #9
  call void @llvm.lifetime.end.p0(i64 1, ptr nonnull %3) #9
  br label %30

24:                                               ; preds = %2
  %25 = tail call noundef ptr @palloc0(i64 noundef 24) #9
  store i32 43, ptr %25, align 4
  %26 = tail call ptr @makeJsonFormat(i32 noundef 1, i32 noundef 0, i32 noundef -1) #9
  %27 = getelementptr inbounds nuw i8, ptr %25, i64 8
  store ptr %26, ptr %27, align 8
  %28 = getelementptr inbounds nuw i8, ptr %25, i64 16
  store i32 25, ptr %28, align 8
  %29 = getelementptr inbounds nuw i8, ptr %25, i64 20
  store i32 -1, ptr %29, align 4
  br label %30

30:                                               ; preds = %10, %23, %24
  %.0 = phi ptr [ %11, %23 ], [ %11, %10 ], [ %25, %24 ]
  %31 = call ptr @list_make1_impl(i32 noundef 1, ptr %7) #9
  %32 = getelementptr inbounds nuw i8, ptr %1, i64 24
  %33 = load i32, ptr %32, align 8
  %34 = call fastcc ptr @makeJsonConstructorExpr(ptr noundef %0, i32 noundef 7, ptr noundef %31, ptr noundef null, ptr noundef nonnull %.0, i1 noundef zeroext false, i1 noundef zeroext false, i32 noundef %33)
  ret ptr %34
}